target datalayout = "e-m:e-p270:32:32-p271:32:32-p272:64:64-i64:64-i128:128-f80:128-n8:16:32:64-S128"
target triple = "x86_64-pc-linux-gnu"

%struct._object = type { %union.anon.124, ptr }
%union.anon.124 = type { i64 }
%"class.open3d::core::Dtype" = type { i32, i64, [16 x i8] }
%"class.std::__shared_count" = type { ptr }
%"class.pybind11::object" = type { %"class.pybind11::handle" }
%"class.pybind11::handle" = type { ptr }
%"class.open3d::core::Tensor" = type { %"class.open3d::core::IsDevice", %"class.open3d::core::SizeVector", %"class.open3d::core::SizeVector", ptr, %"class.open3d::core::Dtype", %"class.std::shared_ptr.367" }
%"class.open3d::core::IsDevice" = type { ptr }
%"class.open3d::core::SizeVector" = type { %"class.open3d::core::SmallVector" }
%"class.open3d::core::SmallVector" = type { %"class.open3d::core::SmallVectorImpl", %"struct.open3d::core::SmallVectorStorage" }
%"class.open3d::core::SmallVectorImpl" = type { %"class.open3d::core::SmallVectorTemplateBase" }
%"class.open3d::core::SmallVectorTemplateBase" = type { %"class.open3d::core::SmallVectorTemplateCommon" }
%"class.open3d::core::SmallVectorTemplateCommon" = type { %"class.open3d::core::SmallVectorBase" }
%"class.open3d::core::SmallVectorBase" = type { ptr, i32, i32 }
%"struct.open3d::core::SmallVectorStorage" = type { [32 x i8] }
%"class.std::shared_ptr.367" = type { %"class.std::__shared_ptr.368" }
%"class.std::__shared_ptr.368" = type { ptr, %"class.std::__shared_count" }
%"class.open3d::core::TensorKey" = type { %"class.std::shared_ptr.371" }
%"class.std::shared_ptr.371" = type { %"class.std::__shared_ptr.372" }
%"class.std::__shared_ptr.372" = type { ptr, %"class.std::__shared_count" }
%"class.pybind11::array" = type { %"class.pybind11::buffer" }
%"class.pybind11::buffer" = type { %"class.pybind11::object" }

@_ZN6open3d4core4BoolE = external global %"class.open3d::core::Dtype", align 8
@_ZN6open3d4core5Int64E = external global %"class.open3d::core::Dtype", align 8

; Function Attrs: alwaysinline mustprogress nounwind ssp uwtable
define internal void @_ZL9Py_INCREFP7_object(ptr noundef %0) #15 {
  %2 = alloca ptr, align 8
  %3 = alloca i32, align 4
  %4 = alloca i32, align 4
  %5 = alloca i32, align 4
  store ptr %0, ptr %2, align 8, !tbaa !176
  call void @llvm.lifetime.start.p0(i64 4, ptr %3) #25
  %6 = load ptr, ptr %2, align 8, !tbaa !176
  %7 = getelementptr inbounds nuw %struct._object, ptr %6, i32 0, i32 0
  %8 = getelementptr inbounds [2 x i32], ptr %7, i64 0, i64 0
  %9 = load i32, ptr %8, align 8, !tbaa !256
  store i32 %9, ptr %3, align 4, !tbaa !257
  call void @llvm.lifetime.start.p0(i64 4, ptr %4) #25
  %10 = load i32, ptr %3, align 4, !tbaa !257
  %11 = add i32 %10, 1
  store i32 %11, ptr %4, align 4, !tbaa !257
  %12 = load i32, ptr %4, align 4, !tbaa !257
  %13 = icmp eq i32 %12, 0
  br i1 %13, label %14, label %15

14:                                               ; preds = %1
  store i32 1, ptr %5, align 4
  br label %20

15:                                               ; preds = %1
  %16 = load i32, ptr %4, align 4, !tbaa !257
  %17 = load ptr, ptr %2, align 8, !tbaa !176
  %18 = getelementptr inbounds nuw %struct._object, ptr %17, i32 0, i32 0
  %19 = getelementptr inbounds [2 x i32], ptr %18, i64 0, i64 0
  store i32 %16, ptr %19, align 8, !tbaa !256
  store i32 0, ptr %5, align 4
  br label %20

20:                                               ; preds = %15, %14
  call void @llvm.lifetime.end.p0(i64 4, ptr %4) #25
  call void @llvm.lifetime.end.p0(i64 4, ptr %3) #25
  %21 = load i32, ptr %5, align 4
  switch i32 %21, label %23 [
    i32 0, label %22
    i32 1, label %22
  ]

22:                                               ; preds = %20, %20
  ret void

23:                                               ; preds = %20
  unreachable
}

; Function Attrs: inlinehint mustprogress ssp uwtable
define internal void @_ZL10Py_XINCREFP7_object(ptr noundef %0) #9 {
  %2 = alloca ptr, align 8
  store ptr %0, ptr %2, align 8, !tbaa !176
  %3 = load ptr, ptr %2, align 8, !tbaa !176
  %4 = icmp ne ptr %3, null
  br i1 %4, label %5, label %7

5:                                                ; preds = %1
  %6 = load ptr, ptr %2, align 8, !tbaa !176
  call void @_ZL9Py_INCREFP7_object(ptr noundef %6)
  br label %7

7:                                                ; preds = %5, %1
  ret void
}

; Function Attrs: mustprogress ssp uwtable
define linkonce_odr hidden noundef nonnull align 8 dereferenceable(8) ptr @_ZNKR8pybind116handle7inc_refEv(ptr noundef nonnull align 8 dereferenceable(8) %0) #4 comdat align 2 !type !255 {
  %2 = alloca ptr, align 8
  store ptr %0, ptr %2, align 8, !tbaa !183
  %3 = load ptr, ptr %2, align 8
  %4 = getelementptr inbounds nuw %"class.pybind11::handle", ptr %3, i32 0, i32 0
  %5 = load ptr, ptr %4, align 8, !tbaa !181
  call void @_ZL10Py_XINCREFP7_object(ptr noundef %5)
  ret ptr %3
}

; Function Attrs: mustprogress ssp uwtable
define linkonce_odr hidden void @_ZN8pybind116objectC2ERKS0_(ptr noundef nonnull align 8 dereferenceable(8) %0, ptr noundef nonnull align 8 dereferenceable(8) %1) unnamed_addr #4 comdat align 2 {
  %3 = alloca ptr, align 8
  %4 = alloca ptr, align 8
  store ptr %0, ptr %3, align 8, !tbaa !179
  store ptr %1, ptr %4, align 8, !tbaa !179
  %5 = load ptr, ptr %3, align 8
  %6 = load ptr, ptr %4, align 8, !tbaa !179
  call void @llvm.memcpy.p0.p0.i64(ptr align 8 %5, ptr align 8 %6, i64 8, i1 false)
  %7 = call noundef nonnull align 8 dereferenceable(8) ptr @_ZNKR8pybind116handle7inc_refEv(ptr noundef nonnull align 8 dereferenceable(8) %5)
  ret void
}

; Function Attrs: inlinehint mustprogress ssp uwtable
define linkonce_odr hidden void @_ZN8pybind116bufferC2ERKS0_(ptr noundef nonnull align 8 dereferenceable(8) %0, ptr noundef nonnull align 8 dereferenceable(8) %1) unnamed_addr #9 comdat align 2 {
  %3 = alloca ptr, align 8
  %4 = alloca ptr, align 8
  store ptr %0, ptr %3, align 8, !tbaa !3992
  store ptr %1, ptr %4, align 8, !tbaa !3992
  %5 = load ptr, ptr %3, align 8
  %6 = load ptr, ptr %4, align 8, !tbaa !3992
  call void @_ZN8pybind116objectC2ERKS0_(ptr noundef nonnull align 8 dereferenceable(8) %5, ptr noundef nonnull align 8 dereferenceable(8) %6)
  ret void
}

; Function Attrs: inlinehint mustprogress nounwind ssp uwtable
define linkonce_odr hidden void @_ZNK6open3d4core6Tensor8GetDtypeEv(ptr dead_on_unwind noalias writable sret(%"class.open3d::core::Dtype") align 8 %0, ptr noundef nonnull align 8 dereferenceable(160) %1) #0 comdat align 2 !type !2678 {
  %3 = alloca ptr, align 8
  store ptr %1, ptr %3, align 8, !tbaa !2616
  %4 = load ptr, ptr %3, align 8
  %5 = getelementptr inbounds nuw %"class.open3d::core::Tensor", ptr %4, i32 0, i32 4
  call void @llvm.memcpy.p0.p0.i64(ptr align 8 %0, ptr align 8 %5, i64 32, i1 false), !tbaa.struct !2668
  ret void
}

; Function Attrs: inlinehint mustprogress ssp uwtable
define linkonce_odr hidden void @_ZN8pybind115arrayC2ERKS0_(ptr noundef nonnull align 8 dereferenceable(8) %0, ptr noundef nonnull align 8 dereferenceable(8) %1) unnamed_addr #9 comdat align 2 {
  %3 = alloca ptr, align 8
  %4 = alloca ptr, align 8
  store ptr %0, ptr %3, align 8, !tbaa !3990
  store ptr %1, ptr %4, align 8, !tbaa !3990
  %5 = load ptr, ptr %3, align 8
  %6 = load ptr, ptr %4, align 8, !tbaa !3990
  call void @_ZN8pybind116bufferC2ERKS0_(ptr noundef nonnull align 8 dereferenceable(8) %5, ptr noundef nonnull align 8 dereferenceable(8) %6)
  ret void
}

; Function Attrs: mustprogress ssp uwtable
define internal void @_ZN6open3d4coreL11ToTensorKeyERKN8pybind115arrayE(ptr dead_on_unwind noalias writable sret(%"class.open3d::core::TensorKey") align 8 %0, ptr noundef nonnull align 8 dereferenceable(8) %1) #4 personality ptr @__gxx_personality_v0 {
  %3 = alloca ptr, align 8
  %4 = alloca ptr, align 8
  %5 = alloca %"class.open3d::core::Tensor", align 8
  %6 = alloca %"class.pybind11::array", align 8
  %7 = alloca ptr, align 8
  %8 = alloca i32, align 4
  %9 = alloca %"class.open3d::core::Dtype", align 8
  %10 = alloca %"class.open3d::core::Tensor", align 8
  %11 = alloca %"class.open3d::core::Dtype", align 8
  store ptr %0, ptr %3, align 8
  store ptr %1, ptr %4, align 8, !tbaa !3990
  call void @llvm.lifetime.start.p0(i64 160, ptr %5) #25
  %12 = load ptr, ptr %4, align 8, !tbaa !3990
  call void @_ZN8pybind115arrayC2ERKS0_(ptr noundef nonnull align 8 dereferenceable(8) %6, ptr noundef nonnull align 8 dereferenceable(8) %12)
  invoke void @_ZN6open3d4core15PyArrayToTensorEN8pybind115arrayEb(ptr dead_on_unwind writable sret(%"class.open3d::core::Tensor") align 8 %5, ptr noundef %6, i1 noundef zeroext false)
          to label %13 unwind label %20

13:                                               ; preds = %2
  call void @_ZN8pybind116objectD2Ev(ptr noundef nonnull align 8 dereferenceable(8) %6) #25
  call void @llvm.lifetime.start.p0(i64 32, ptr %9) #25
  call void @_ZNK6open3d4core6Tensor8GetDtypeEv(ptr dead_on_unwind writable sret(%"class.open3d::core::Dtype") align 8 %9, ptr noundef nonnull align 8 dereferenceable(160) %5)
  %14 = invoke noundef zeroext i1 @_ZNK6open3d4core5DtypeneERKS1_(ptr noundef nonnull align 8 dereferenceable(32) %9, ptr noundef nonnull align 8 dereferenceable(32) @_ZN6open3d4core4BoolE)
          to label %15 unwind label %24

15:                                               ; preds = %13
  call void @llvm.lifetime.end.p0(i64 32, ptr %9) #25
  br i1 %14, label %16, label %37

16:                                               ; preds = %15
  call void @llvm.lifetime.start.p0(i64 160, ptr %10) #25
  call void @llvm.memcpy.p0.p0.i64(ptr align 8 %11, ptr align 8 @_ZN6open3d4core5Int64E, i64 32, i1 false), !tbaa.struct !2668
  invoke void @_ZNK6open3d4core6Tensor2ToENS0_5DtypeEb(ptr dead_on_unwind writable sret(%"class.open3d::core::Tensor") align 8 %10, ptr noundef nonnull align 8 dereferenceable(160) %5, ptr noundef byval(%"class.open3d::core::Dtype") align 8 %11, i1 noundef zeroext false)
          to label %17 unwind label %28

17:                                               ; preds = %16
  %18 = invoke noundef nonnull align 8 dereferenceable(160) ptr @_ZNR6open3d4core6TensoraSEOS1_(ptr noundef nonnull align 8 dereferenceable(160) %5, ptr noundef nonnull align 8 dereferenceable(160) %10)
          to label %19 unwind label %32

19:                                               ; preds = %17
  call void @_ZN6open3d4core6TensorD2Ev(ptr noundef nonnull align 8 dereferenceable(160) %10) #25
  call void @llvm.lifetime.end.p0(i64 160, ptr %10) #25
  br label %37

20:                                               ; preds = %2
  %21 = landingpad { ptr, i32 }
          cleanup
  %22 = extractvalue { ptr, i32 } %21, 0
  store ptr %22, ptr %7, align 8
  %23 = extractvalue { ptr, i32 } %21, 1
  store i32 %23, ptr %8, align 4
  call void @_ZN8pybind116objectD2Ev(ptr noundef nonnull align 8 dereferenceable(8) %6) #25
  br label %44

24:                                               ; preds = %13
  %25 = landingpad { ptr, i32 }
          cleanup
  %26 = extractvalue { ptr, i32 } %25, 0
  store ptr %26, ptr %7, align 8
  %27 = extractvalue { ptr, i32 } %25, 1
  store i32 %27, ptr %8, align 4
  call void @llvm.lifetime.end.p0(i64 32, ptr %9) #25
  br label %43

28:                                               ; preds = %16
  %29 = landingpad { ptr, i32 }
          cleanup
  %30 = extractvalue { ptr, i32 } %29, 0
  store ptr %30, ptr %7, align 8
  %31 = extractvalue { ptr, i32 } %29, 1
  store i32 %31, ptr %8, align 4
  br label %36

32:                                               ; preds = %17
  %33 = landingpad { ptr, i32 }
          cleanup
  %34 = extractvalue { ptr, i32 } %33, 0
  store ptr %34, ptr %7, align 8
  %35 = extractvalue { ptr, i32 } %33, 1
  store i32 %35, ptr %8, align 4
  call void @_ZN6open3d4core6TensorD2Ev(ptr noundef nonnull align 8 dereferenceable(160) %10) #25
  br label %36

36:                                               ; preds = %32, %28
  call void @llvm.lifetime.end.p0(i64 160, ptr %10) #25
  br label %43

37:                                               ; preds = %19, %15
  invoke void @_ZN6open3d4core9TensorKey11IndexTensorERKNS0_6TensorE(ptr dead_on_unwind writable sret(%"class.open3d::core::TensorKey") align 8 %0, ptr noundef nonnull align 8 dereferenceable(160) %5)
          to label %38 unwind label %39

38:                                               ; preds = %37
  call void @_ZN6open3d4core6TensorD2Ev(ptr noundef nonnull align 8 dereferenceable(160) %5) #25
  call void @llvm.lifetime.end.p0(i64 160, ptr %5) #25
  ret void

39:                                               ; preds = %37
  %40 = landingpad { ptr, i32 }
          cleanup
  %41 = extractvalue { ptr, i32 } %40, 0
  store ptr %41, ptr %7, align 8
  %42 = extractvalue { ptr, i32 } %40, 1
  store i32 %42, ptr %8, align 4
  br label %43

43:                                               ; preds = %39, %36, %24
  call void @_ZN6open3d4core6TensorD2Ev(ptr noundef nonnull align 8 dereferenceable(160) %5) #25
  br label %44

44:                                               ; preds = %43, %20
  call void @llvm.lifetime.end.p0(i64 160, ptr %5) #25
  br label %45

45:                                               ; preds = %44
  %46 = load ptr, ptr %7, align 8
  %47 = load i32, ptr %8, align 4
  %48 = insertvalue { ptr, i32 } poison, ptr %46, 0
  %49 = insertvalue { ptr, i32 } %48, i32 %47, 1
  resume { ptr, i32 } %49
}