; Function Attrs: mustprogress ssp uwtable
define internal fastcc void @_ZN6open3d4coreL11ToTensorKeyERKN8pybind115arrayE(ptr dead_on_unwind noalias nonnull writable align 8 %0, i64 %.0.val) unnamed_addr #5 personality ptr @__gxx_personality_v0 {
  %2 = alloca %"class.open3d::core::Tensor", align 8
  %3 = alloca %"class.pybind11::array", align 8
  %4 = alloca %"class.open3d::core::Dtype", align 8
  %5 = alloca %"class.open3d::core::Tensor", align 8
  call void @llvm.lifetime.start.p0(i64 160, ptr nonnull %2) #33
  store i64 %.0.val, ptr %3, align 8
  %6 = inttoptr i64 %.0.val to ptr
  %.not.i.i.i.i.i = icmp eq i64 %.0.val, 0
  br i1 %.not.i.i.i.i.i, label %_ZN8pybind115arrayC2ERKS0_.exit, label %7

7:                                                ; preds = %1
  %8 = load i32, ptr %6, align 8, !tbaa !136
  %9 = add i32 %8, 1
  %10 = icmp eq i32 %9, 0
  br i1 %10, label %_ZN8pybind115arrayC2ERKS0_.exit, label %11

11:                                               ; preds = %7
  store i32 %9, ptr %6, align 8, !tbaa !136
  br label %_ZN8pybind115arrayC2ERKS0_.exit

_ZN8pybind115arrayC2ERKS0_.exit:                  ; preds = %1, %7, %11
  invoke void @_ZN6open3d4core15PyArrayToTensorEN8pybind115arrayEb(ptr dead_on_unwind nonnull writable sret(%"class.open3d::core::Tensor") align 8 %2, ptr noundef nonnull %3, i1 noundef zeroext false)
          to label %12 unwind label %64

12:                                               ; preds = %_ZN8pybind115arrayC2ERKS0_.exit
  %13 = load ptr, ptr %3, align 8, !tbaa !147
  %.not.i.i.i = icmp eq ptr %13, null
  br i1 %.not.i.i.i, label %_ZN8pybind116objectD2Ev.exit, label %14

14:                                               ; preds = %12
  %15 = load i64, ptr %13, align 8, !tbaa !136
  %16 = and i64 %15, 2147483648
  %.not2.i.i.i = icmp eq i64 %16, 0
  br i1 %.not2.i.i.i, label %17, label %_ZN8pybind116objectD2Ev.exit

17:                                               ; preds = %14
  %18 = add nsw i64 %15, -1
  store i64 %18, ptr %13, align 8, !tbaa !136
  %19 = icmp eq i64 %18, 0
  br i1 %19, label %20, label %_ZN8pybind116objectD2Ev.exit

20:                                               ; preds = %17
  invoke void @_Py_Dealloc(ptr noundef nonnull %13)
          to label %_ZN8pybind116objectD2Ev.exit unwind label %21

21:                                               ; preds = %20
  %22 = landingpad { ptr, i32 }
          catch ptr null
  %23 = extractvalue { ptr, i32 } %22, 0
  call void @__clang_call_terminate(ptr %23) #34
  unreachable

_ZN8pybind116objectD2Ev.exit:                     ; preds = %12, %14, %17, %20
  call void @llvm.lifetime.start.p0(i64 32, ptr nonnull %4) #33
  %24 = getelementptr inbounds nuw i8, ptr %2, i64 112
  call void @llvm.memcpy.p0.p0.i64(ptr noundef nonnull align 8 dereferenceable(32) %4, ptr noundef nonnull align 8 dereferenceable(32) %24, i64 32, i1 false), !tbaa.struct !1190
  %25 = invoke noundef zeroext i1 @_ZNK6open3d4core5DtypeneERKS1_(ptr noundef nonnull align 8 dereferenceable(32) %4, ptr noundef nonnull align 8 dereferenceable(32) @_ZN6open3d4core4BoolE)
          to label %26 unwind label %66

26:                                               ; preds = %_ZN8pybind116objectD2Ev.exit
  call void @llvm.lifetime.end.p0(i64 32, ptr nonnull %4) #33
  br i1 %25, label %27, label %73

27:                                               ; preds = %26
  call void @llvm.lifetime.start.p0(i64 160, ptr nonnull %5) #33
  invoke void @_ZNK6open3d4core6Tensor2ToENS0_5DtypeEb(ptr dead_on_unwind nonnull writable sret(%"class.open3d::core::Tensor") align 8 %5, ptr noundef nonnull align 8 dereferenceable(160) %2, ptr noundef nonnull byval(%"class.open3d::core::Dtype") align 8 @_ZN6open3d4core5Int64E, i1 noundef zeroext false)
          to label %28 unwind label %68

28:                                               ; preds = %27
  %29 = invoke noundef nonnull align 8 dereferenceable(160) ptr @_ZNR6open3d4core6TensoraSEOS1_(ptr noundef nonnull align 8 dereferenceable(160) %2, ptr noundef nonnull align 8 dereferenceable(160) %5)
          to label %30 unwind label %70

30:                                               ; preds = %28
  store ptr getelementptr inbounds nuw inrange(-16, 24) (i8, ptr @_ZTVN6open3d4core6TensorE, i64 16), ptr %5, align 8, !tbaa !292
  %31 = getelementptr inbounds nuw i8, ptr %5, i64 152
  %32 = load ptr, ptr %31, align 8, !tbaa !294
  %.not.i.i.i9 = icmp eq ptr %32, null
  br i1 %.not.i.i.i9, label %_ZNSt12__shared_ptrIN6open3d4core4BlobELN9__gnu_cxx12_Lock_policyE2EED2Ev.exit.i, label %33

33:                                               ; preds = %30
  %34 = getelementptr inbounds nuw i8, ptr %32, i64 8
  %35 = load atomic i64, ptr %34 acquire, align 8
  %36 = icmp eq i64 %35, 4294967297
  %37 = trunc i64 %35 to i32
  br i1 %36, label %38, label %46

38:                                               ; preds = %33
  store i32 0, ptr %34, align 8, !tbaa !295
  %39 = getelementptr inbounds nuw i8, ptr %32, i64 12
  store i32 0, ptr %39, align 4, !tbaa !297
  %40 = load ptr, ptr %32, align 8, !tbaa !292
  %41 = getelementptr inbounds nuw i8, ptr %40, i64 16
  %42 = load ptr, ptr %41, align 8
  call void %42(ptr noundef nonnull align 8 dereferenceable(16) %32) #33
  %43 = load ptr, ptr %32, align 8, !tbaa !292
  %44 = getelementptr inbounds nuw i8, ptr %43, i64 24
  %45 = load ptr, ptr %44, align 8
  call void %45(ptr noundef nonnull align 8 dereferenceable(16) %32) #33
  br label %_ZNSt12__shared_ptrIN6open3d4core4BlobELN9__gnu_cxx12_Lock_policyE2EED2Ev.exit.i

46:                                               ; preds = %33
  %47 = load i8, ptr @__libc_single_threaded, align 1, !tbaa !136
  %.not.i.i.i.i = icmp eq i8 %47, 0
  br i1 %.not.i.i.i.i, label %50, label %48

48:                                               ; preds = %46
  %49 = add nsw i32 %37, -1
  store i32 %49, ptr %34, align 4, !tbaa !298
  br label %_ZN9__gnu_cxx27__exchange_and_add_dispatchEPii.exit.i.i.i.i

50:                                               ; preds = %46
  %51 = atomicrmw volatile add ptr %34, i32 -1 acq_rel, align 4
  br label %_ZN9__gnu_cxx27__exchange_and_add_dispatchEPii.exit.i.i.i.i

_ZN9__gnu_cxx27__exchange_and_add_dispatchEPii.exit.i.i.i.i: ; preds = %50, %48
  %.0.i.i.i.i.i = phi i32 [ %37, %48 ], [ %51, %50 ]
  %52 = icmp eq i32 %.0.i.i.i.i.i, 1
  br i1 %52, label %53, label %_ZNSt12__shared_ptrIN6open3d4core4BlobELN9__gnu_cxx12_Lock_policyE2EED2Ev.exit.i, !prof !299

53:                                               ; preds = %_ZN9__gnu_cxx27__exchange_and_add_dispatchEPii.exit.i.i.i.i
  call void @_ZNSt16_Sp_counted_baseILN9__gnu_cxx12_Lock_policyE2EE24_M_release_last_use_coldEv(ptr noundef nonnull align 8 dereferenceable(16) %32) #33
  br label %_ZNSt12__shared_ptrIN6open3d4core4BlobELN9__gnu_cxx12_Lock_policyE2EED2Ev.exit.i

_ZNSt12__shared_ptrIN6open3d4core4BlobELN9__gnu_cxx12_Lock_policyE2EED2Ev.exit.i: ; preds = %53, %_ZN9__gnu_cxx27__exchange_and_add_dispatchEPii.exit.i.i.i.i, %38, %30
  %54 = getelementptr inbounds nuw i8, ptr %5, i64 56
  %55 = load ptr, ptr %54, align 8, !tbaa !1172
  %56 = getelementptr inbounds nuw i8, ptr %5, i64 72
  %57 = icmp eq ptr %55, %56
  br i1 %57, label %_ZN6open3d4core11SmallVectorIlLj4EED2Ev.exit.i, label %58

58:                                               ; preds = %_ZNSt12__shared_ptrIN6open3d4core4BlobELN9__gnu_cxx12_Lock_policyE2EED2Ev.exit.i
  call void @free(ptr noundef %55) #33
  br label %_ZN6open3d4core11SmallVectorIlLj4EED2Ev.exit.i

_ZN6open3d4core11SmallVectorIlLj4EED2Ev.exit.i:   ; preds = %58, %_ZNSt12__shared_ptrIN6open3d4core4BlobELN9__gnu_cxx12_Lock_policyE2EED2Ev.exit.i
  %59 = getelementptr inbounds nuw i8, ptr %5, i64 8
  %60 = load ptr, ptr %59, align 8, !tbaa !1172
  %61 = getelementptr inbounds nuw i8, ptr %5, i64 24
  %62 = icmp eq ptr %60, %61
  br i1 %62, label %_ZN6open3d4core6TensorD2Ev.exit, label %63

63:                                               ; preds = %_ZN6open3d4core11SmallVectorIlLj4EED2Ev.exit.i
  call void @free(ptr noundef %60) #33
  br label %_ZN6open3d4core6TensorD2Ev.exit

_ZN6open3d4core6TensorD2Ev.exit:                  ; preds = %_ZN6open3d4core11SmallVectorIlLj4EED2Ev.exit.i, %63
  call void @llvm.lifetime.end.p0(i64 160, ptr nonnull %5) #33
  br label %73

64:                                               ; preds = %_ZN8pybind115arrayC2ERKS0_.exit
  %65 = landingpad { ptr, i32 }
          cleanup
  call void @_ZN8pybind116objectD2Ev(ptr noundef nonnull align 8 dereferenceable(8) %3) #33
  br label %111

66:                                               ; preds = %_ZN8pybind116objectD2Ev.exit
  %67 = landingpad { ptr, i32 }
          cleanup
  call void @llvm.lifetime.end.p0(i64 32, ptr nonnull %4) #33
  br label %110

68:                                               ; preds = %27
  %69 = landingpad { ptr, i32 }
          cleanup
  br label %72

70:                                               ; preds = %28
  %71 = landingpad { ptr, i32 }
          cleanup
  call void @_ZN6open3d4core6TensorD2Ev(ptr noundef nonnull align 8 dereferenceable(160) %5) #33
  br label %72

72:                                               ; preds = %70, %68
  %.pn = phi { ptr, i32 } [ %71, %70 ], [ %69, %68 ]
  call void @llvm.lifetime.end.p0(i64 160, ptr nonnull %5) #33
  br label %110

73:                                               ; preds = %_ZN6open3d4core6TensorD2Ev.exit, %26
  invoke void @_ZN6open3d4core9TensorKey11IndexTensorERKNS0_6TensorE(ptr dead_on_unwind nonnull writable sret(%"class.open3d::core::TensorKey") align 8 %0, ptr noundef nonnull align 8 dereferenceable(160) %2)
          to label %74 unwind label %108

74:                                               ; preds = %73
  store ptr getelementptr inbounds nuw inrange(-16, 24) (i8, ptr @_ZTVN6open3d4core6TensorE, i64 16), ptr %2, align 8, !tbaa !292
  %75 = getelementptr inbounds nuw i8, ptr %2, i64 152
  %76 = load ptr, ptr %75, align 8, !tbaa !294
  %.not.i.i.i10 = icmp eq ptr %76, null
  br i1 %.not.i.i.i10, label %_ZNSt12__shared_ptrIN6open3d4core4BlobELN9__gnu_cxx12_Lock_policyE2EED2Ev.exit.i14, label %77

77:                                               ; preds = %74
  %78 = getelementptr inbounds nuw i8, ptr %76, i64 8
  %79 = load atomic i64, ptr %78 acquire, align 8
  %80 = icmp eq i64 %79, 4294967297
  %81 = trunc i64 %79 to i32
  br i1 %80, label %82, label %90

82:                                               ; preds = %77
  store i32 0, ptr %78, align 8, !tbaa !295
  %83 = getelementptr inbounds nuw i8, ptr %76, i64 12
  store i32 0, ptr %83, align 4, !tbaa !297
  %84 = load ptr, ptr %76, align 8, !tbaa !292
  %85 = getelementptr inbounds nuw i8, ptr %84, i64 16
  %86 = load ptr, ptr %85, align 8
  call void %86(ptr noundef nonnull align 8 dereferenceable(16) %76) #33
  %87 = load ptr, ptr %76, align 8, !tbaa !292
  %88 = getelementptr inbounds nuw i8, ptr %87, i64 24
  %89 = load ptr, ptr %88, align 8
  call void %89(ptr noundef nonnull align 8 dereferenceable(16) %76) #33
  br label %_ZNSt12__shared_ptrIN6open3d4core4BlobELN9__gnu_cxx12_Lock_policyE2EED2Ev.exit.i14

90:                                               ; preds = %77
  %91 = load i8, ptr @__libc_single_threaded, align 1, !tbaa !136
  %.not.i.i.i.i11 = icmp eq i8 %91, 0
  br i1 %.not.i.i.i.i11, label %94, label %92

92:                                               ; preds = %90
  %93 = add nsw i32 %81, -1
  store i32 %93, ptr %78, align 4, !tbaa !298
  br label %_ZN9__gnu_cxx27__exchange_and_add_dispatchEPii.exit.i.i.i.i12

94:                                               ; preds = %90
  %95 = atomicrmw volatile add ptr %78, i32 -1 acq_rel, align 4
  br label %_ZN9__gnu_cxx27__exchange_and_add_dispatchEPii.exit.i.i.i.i12

_ZN9__gnu_cxx27__exchange_and_add_dispatchEPii.exit.i.i.i.i12: ; preds = %94, %92
  %.0.i.i.i.i.i13 = phi i32 [ %81, %92 ], [ %95, %94 ]
  %96 = icmp eq i32 %.0.i.i.i.i.i13, 1
  br i1 %96, label %97, label %_ZNSt12__shared_ptrIN6open3d4core4BlobELN9__gnu_cxx12_Lock_policyE2EED2Ev.exit.i14, !prof !299

97:                                               ; preds = %_ZN9__gnu_cxx27__exchange_and_add_dispatchEPii.exit.i.i.i.i12
  call void @_ZNSt16_Sp_counted_baseILN9__gnu_cxx12_Lock_policyE2EE24_M_release_last_use_coldEv(ptr noundef nonnull align 8 dereferenceable(16) %76) #33
  br label %_ZNSt12__shared_ptrIN6open3d4core4BlobELN9__gnu_cxx12_Lock_policyE2EED2Ev.exit.i14

_ZNSt12__shared_ptrIN6open3d4core4BlobELN9__gnu_cxx12_Lock_policyE2EED2Ev.exit.i14: ; preds = %97, %_ZN9__gnu_cxx27__exchange_and_add_dispatchEPii.exit.i.i.i.i12, %82, %74
  %98 = getelementptr inbounds nuw i8, ptr %2, i64 56
  %99 = load ptr, ptr %98, align 8, !tbaa !1172
  %100 = getelementptr inbounds nuw i8, ptr %2, i64 72
  %101 = icmp eq ptr %99, %100
  br i1 %101, label %_ZN6open3d4core11SmallVectorIlLj4EED2Ev.exit.i15, label %102

102:                                              ; preds = %_ZNSt12__shared_ptrIN6open3d4core4BlobELN9__gnu_cxx12_Lock_policyE2EED2Ev.exit.i14
  call void @free(ptr noundef %99) #33
  br label %_ZN6open3d4core11SmallVectorIlLj4EED2Ev.exit.i15

_ZN6open3d4core11SmallVectorIlLj4EED2Ev.exit.i15: ; preds = %102, %_ZNSt12__shared_ptrIN6open3d4core4BlobELN9__gnu_cxx12_Lock_policyE2EED2Ev.exit.i14
  %103 = getelementptr inbounds nuw i8, ptr %2, i64 8
  %104 = load ptr, ptr %103, align 8, !tbaa !1172
  %105 = getelementptr inbounds nuw i8, ptr %2, i64 24
  %106 = icmp eq ptr %104, %105
  br i1 %106, label %_ZN6open3d4core6TensorD2Ev.exit16, label %107

107:                                              ; preds = %_ZN6open3d4core11SmallVectorIlLj4EED2Ev.exit.i15
  call void @free(ptr noundef %104) #33
  br label %_ZN6open3d4core6TensorD2Ev.exit16

_ZN6open3d4core6TensorD2Ev.exit16:                ; preds = %_ZN6open3d4core11SmallVectorIlLj4EED2Ev.exit.i15, %107
  call void @llvm.lifetime.end.p0(i64 160, ptr nonnull %2) #33
  ret void

108:                                              ; preds = %73
  %109 = landingpad { ptr, i32 }
          cleanup
  br label %110

110:                                              ; preds = %108, %72, %66
  %.pn6 = phi { ptr, i32 } [ %109, %108 ], [ %.pn, %72 ], [ %67, %66 ]
  call void @_ZN6open3d4core6TensorD2Ev(ptr noundef nonnull align 8 dereferenceable(160) %2) #33
  br label %111

111:                                              ; preds = %110, %64
  %.pn6.pn = phi { ptr, i32 } [ %.pn6, %110 ], [ %65, %64 ]
  call void @llvm.lifetime.end.p0(i64 160, ptr nonnull %2) #33
  resume { ptr, i32 } %.pn6.pn
}